target datalayout = "e-m:e-p270:32:32-p271:32:32-p272:64:64-i64:64-i128:128-f80:128-n8:16:32:64-S128"
target triple = "x86_64-pc-linux-gnu"

%"struct.std::atomic.40" = type { %"struct.std::__atomic_base.41" }
%"struct.std::__atomic_base.41" = type { ptr }
%"class.folly::SemiFuture" = type { %"class.folly::futures::detail::FutureBase" }
%"class.folly::futures::detail::FutureBase" = type { ptr }
%"class.std::chrono::duration" = type { i64 }
%"class.folly::Future" = type { %"class.folly::futures::detail::FutureBase" }
%"class.folly::Executor::KeepAlive" = type { i64 }

@_ZN5folly14InlineExecutor5cacheE = external global %"struct.std::atomic.40", align 8

; Function Attrs: inlinehint mustprogress nounwind uwtable
define linkonce_odr noundef i64 @_ZSt10__exchangeImiET_RS0_OT0_(ptr noundef nonnull align 8 dereferenceable(8) %0, ptr noundef nonnull align 4 dereferenceable(4) %1) #5 comdat {
  %3 = alloca ptr, align 8
  %4 = alloca ptr, align 8
  %5 = alloca i64, align 8
  store ptr %0, ptr %3, align 8, !tbaa !252
  store ptr %1, ptr %4, align 8, !tbaa !60
  call void @llvm.lifetime.start.p0(i64 8, ptr %5) #31
  %6 = load ptr, ptr %3, align 8, !tbaa !252
  %7 = load i64, ptr %6, align 8, !tbaa !127
  store i64 %7, ptr %5, align 8, !tbaa !127
  %8 = load ptr, ptr %4, align 8, !tbaa !60
  %9 = load i32, ptr %8, align 4, !tbaa !39
  %10 = sext i32 %9 to i64
  %11 = load ptr, ptr %3, align 8, !tbaa !252
  store i64 %10, ptr %11, align 8, !tbaa !127
  %12 = load i64, ptr %5, align 8, !tbaa !127
  call void @llvm.lifetime.end.p0(i64 8, ptr %5) #31
  ret i64 %12
}

; Function Attrs: mustprogress nounwind uwtable
define linkonce_odr void @_ZN5folly8Executor9KeepAliveIS0_EC2EPS0_m(ptr noundef nonnull align 8 dereferenceable(8) %0, ptr noundef %1, i64 noundef %2) unnamed_addr #4 comdat align 2 {
  %4 = alloca ptr, align 8
  %5 = alloca ptr, align 8
  %6 = alloca i64, align 8
  store ptr %0, ptr %4, align 8, !tbaa !182
  store ptr %1, ptr %5, align 8, !tbaa !227
  store i64 %2, ptr %6, align 8, !tbaa !127
  %7 = load ptr, ptr %4, align 8
  %8 = getelementptr inbounds nuw %"class.folly::Executor::KeepAlive", ptr %7, i32 0, i32 0
  %9 = load ptr, ptr %5, align 8, !tbaa !227
  %10 = ptrtoint ptr %9 to i64
  %11 = load i64, ptr %6, align 8, !tbaa !127
  %12 = or i64 %10, %11
  store i64 %12, ptr %8, align 8, !tbaa !229
  ret void
}

; Function Attrs: mustprogress nounwind uwtable
define linkonce_odr noundef i32 @_ZStanSt12memory_orderSt23__memory_order_modifier(i32 noundef %0, i32 noundef %1) #4 comdat {
  %3 = alloca i32, align 4
  %4 = alloca i32, align 4
  store i32 %0, ptr %3, align 4, !tbaa !93
  store i32 %1, ptr %4, align 4, !tbaa !258
  %5 = load i32, ptr %3, align 4, !tbaa !93
  %6 = load i32, ptr %4, align 4, !tbaa !258
  %7 = and i32 %5, %6
  ret i32 %7
}

; Function Attrs: mustprogress nounwind uwtable
define linkonce_odr noundef ptr @_ZNK5folly8Executor9KeepAliveIS0_E3getEv(ptr noundef nonnull align 8 dereferenceable(8) %0) #4 comdat align 2 {
  %2 = alloca ptr, align 8
  store ptr %0, ptr %2, align 8, !tbaa !182
  %3 = load ptr, ptr %2, align 8
  %4 = getelementptr inbounds nuw %"class.folly::Executor::KeepAlive", ptr %3, i32 0, i32 0
  %5 = load i64, ptr %4, align 8, !tbaa !229
  %6 = and i64 %5, -4
  %7 = inttoptr i64 %6 to ptr
  ret ptr %7
}

; Function Attrs: inlinehint mustprogress nounwind uwtable
define linkonce_odr noundef i64 @_ZSt8exchangeImiET_RS0_OT0_(ptr noundef nonnull align 8 dereferenceable(8) %0, ptr noundef nonnull align 4 dereferenceable(4) %1) #5 comdat personality ptr @__gxx_personality_v0 {
  %3 = alloca ptr, align 8
  %4 = alloca ptr, align 8
  store ptr %0, ptr %3, align 8, !tbaa !252
  store ptr %1, ptr %4, align 8, !tbaa !60
  %5 = load ptr, ptr %3, align 8, !tbaa !252
  %6 = load ptr, ptr %4, align 8, !tbaa !60
  %7 = invoke noundef i64 @_ZSt10__exchangeImiET_RS0_OT0_(ptr noundef nonnull align 8 dereferenceable(8) %5, ptr noundef nonnull align 4 dereferenceable(4) %6)
          to label %8 unwind label %9

8:                                                ; preds = %2
  ret i64 %7

9:                                                ; preds = %2
  %10 = landingpad { ptr, i32 }
          catch ptr null
  %11 = extractvalue { ptr, i32 } %10, 0
  call void @__clang_call_terminate(ptr %11) #35
  unreachable
}

; Function Attrs: mustprogress nounwind uwtable
define linkonce_odr void @_ZN5folly8Executor18makeKeepAliveDummyIS0_EENS0_9KeepAliveIT_EEPS3_(ptr dead_on_unwind noalias writable sret(%"class.folly::Executor::KeepAlive") align 8 %0, ptr noundef %1) #4 comdat align 2 {
  %3 = alloca ptr, align 8
  %4 = alloca ptr, align 8
  store ptr %0, ptr %3, align 8
  store ptr %1, ptr %4, align 8, !tbaa !227
  %5 = load ptr, ptr %4, align 8, !tbaa !227
  call void @_ZN5folly8Executor9KeepAliveIS0_EC2EPS0_m(ptr noundef nonnull align 8 dereferenceable(8) %0, ptr noundef %5, i64 noundef 1) #31
  ret void
}

; Function Attrs: mustprogress nounwind uwtable
define linkonce_odr void @_ZN5folly8Executor13makeKeepAliveIS0_EENS0_9KeepAliveIT_EEPS3_(ptr dead_on_unwind noalias writable sret(%"class.folly::Executor::KeepAlive") align 8 %0, ptr noundef %1) #4 comdat align 2 {
  %3 = alloca ptr, align 8
  %4 = alloca ptr, align 8
  store ptr %0, ptr %3, align 8
  store ptr %1, ptr %4, align 8, !tbaa !227
  %5 = load ptr, ptr %4, align 8, !tbaa !227
  call void @_ZN5folly8Executor9KeepAliveIS0_EC2EPS0_m(ptr noundef nonnull align 8 dereferenceable(8) %0, ptr noundef %5, i64 noundef 0) #31
  ret void
}

; Function Attrs: mustprogress nounwind uwtable
define linkonce_odr void @_ZN5folly8Executor9KeepAliveIS0_EC2Ev(ptr noundef nonnull align 8 dereferenceable(8) %0) unnamed_addr #4 comdat align 2 {
  %2 = alloca ptr, align 8
  store ptr %0, ptr %2, align 8, !tbaa !182
  %3 = load ptr, ptr %2, align 8
  %4 = getelementptr inbounds nuw %"class.folly::Executor::KeepAlive", ptr %3, i32 0, i32 0
  store i64 0, ptr %4, align 8, !tbaa !229
  ret void
}

; Function Attrs: alwaysinline mustprogress nounwind uwtable
define linkonce_odr noundef ptr @_ZNKSt13__atomic_baseIPN5folly14InlineExecutorEE4loadESt12memory_order(ptr noundef nonnull align 8 dereferenceable(8) %0, i32 noundef %1) #11 comdat align 2 personality ptr @__gxx_personality_v0 {
  %3 = alloca ptr, align 8
  %4 = alloca i32, align 4
  %5 = alloca i32, align 4
  %6 = alloca ptr, align 8
  store ptr %0, ptr %3, align 8, !tbaa !256
  store i32 %1, ptr %4, align 4, !tbaa !93
  %7 = load ptr, ptr %3, align 8
  call void @llvm.lifetime.start.p0(i64 4, ptr %5) #31
  %8 = load i32, ptr %4, align 4, !tbaa !93
  %9 = invoke noundef i32 @_ZStanSt12memory_orderSt23__memory_order_modifier(i32 noundef %8, i32 noundef 65535)
          to label %10 unwind label %27

10:                                               ; preds = %2
  store i32 %9, ptr %5, align 4, !tbaa !93
  br label %11

11:                                               ; preds = %10
  br label %12

12:                                               ; preds = %11
  br label %13

13:                                               ; preds = %12
  br label %14

14:                                               ; preds = %13
  br label %15

15:                                               ; preds = %14
  br label %16

16:                                               ; preds = %15
  %17 = getelementptr inbounds nuw %"struct.std::__atomic_base.41", ptr %7, i32 0, i32 0
  %18 = load i32, ptr %4, align 4, !tbaa !93
  switch i32 %18, label %19 [
    i32 1, label %21
    i32 2, label %21
    i32 5, label %23
  ]

19:                                               ; preds = %16
  %20 = load atomic i64, ptr %17 monotonic, align 8
  store i64 %20, ptr %6, align 8
  br label %25

21:                                               ; preds = %16, %16
  %22 = load atomic i64, ptr %17 acquire, align 8
  store i64 %22, ptr %6, align 8
  br label %25

23:                                               ; preds = %16
  %24 = load atomic i64, ptr %17 seq_cst, align 8
  store i64 %24, ptr %6, align 8
  br label %25

25:                                               ; preds = %23, %21, %19
  %26 = load ptr, ptr %6, align 8, !tbaa !225
  call void @llvm.lifetime.end.p0(i64 4, ptr %5) #31
  ret ptr %26

27:                                               ; preds = %2
  %28 = landingpad { ptr, i32 }
          catch ptr null
  %29 = extractvalue { ptr, i32 } %28, 0
  call void @__clang_call_terminate(ptr %29) #35
  unreachable
}

; Function Attrs: mustprogress nounwind uwtable
define linkonce_odr void @_ZN5folly8Executor9KeepAliveIS0_E5resetEv(ptr noundef nonnull align 8 dereferenceable(8) %0) #4 comdat align 2 {
  %2 = alloca ptr, align 8
  %3 = alloca ptr, align 8
  %4 = alloca i64, align 8
  %5 = alloca i32, align 4
  store ptr %0, ptr %2, align 8, !tbaa !182
  %6 = load ptr, ptr %2, align 8
  call void @llvm.lifetime.start.p0(i64 8, ptr %3) #31
  %7 = call noundef ptr @_ZNK5folly8Executor9KeepAliveIS0_E3getEv(ptr noundef nonnull align 8 dereferenceable(8) %6)
  store ptr %7, ptr %3, align 8, !tbaa !227
  %8 = load ptr, ptr %3, align 8, !tbaa !227
  %9 = icmp ne ptr %8, null
  br i1 %9, label %10, label %23

10:                                               ; preds = %1
  call void @llvm.lifetime.start.p0(i64 8, ptr %4) #31
  %11 = getelementptr inbounds nuw %"class.folly::Executor::KeepAlive", ptr %6, i32 0, i32 0
  call void @llvm.lifetime.start.p0(i64 4, ptr %5) #31
  store i32 0, ptr %5, align 4, !tbaa !39
  %12 = call noundef i64 @_ZSt8exchangeImiET_RS0_OT0_(ptr noundef nonnull align 8 dereferenceable(8) %11, ptr noundef nonnull align 4 dereferenceable(4) %5) #31
  %13 = and i64 %12, 3
  call void @llvm.lifetime.end.p0(i64 4, ptr %5) #31
  store i64 %13, ptr %4, align 8, !tbaa !127
  %14 = load i64, ptr %4, align 8, !tbaa !127
  %15 = and i64 %14, 3
  %16 = icmp ne i64 %15, 0
  br i1 %16, label %22, label %17

17:                                               ; preds = %10
  %18 = load ptr, ptr %3, align 8, !tbaa !227
  %19 = load ptr, ptr %18, align 8, !tbaa !58
  %20 = getelementptr inbounds ptr, ptr %19, i64 6
  %21 = load ptr, ptr %20, align 8
  call void %21(ptr noundef nonnull align 8 dereferenceable(8) %18) #31
  br label %22

22:                                               ; preds = %17, %10
  call void @llvm.lifetime.end.p0(i64 8, ptr %4) #31
  br label %23

23:                                               ; preds = %22, %1
  call void @llvm.lifetime.end.p0(i64 8, ptr %3) #31
  ret void
}

; Function Attrs: mustprogress nounwind uwtable
define linkonce_odr noundef nonnull align 8 dereferenceable(8) ptr @_ZN5folly8Executor9KeepAliveIS0_EaSEOS2_(ptr noundef nonnull align 8 dereferenceable(8) %0, ptr noundef nonnull align 8 dereferenceable(8) %1) #4 comdat align 2 {
  %3 = alloca ptr, align 8
  %4 = alloca ptr, align 8
  %5 = alloca i32, align 4
  store ptr %0, ptr %3, align 8, !tbaa !182
  store ptr %1, ptr %4, align 8, !tbaa !182
  %6 = load ptr, ptr %3, align 8
  call void @_ZN5folly8Executor9KeepAliveIS0_E5resetEv(ptr noundef nonnull align 8 dereferenceable(8) %6) #31
  %7 = load ptr, ptr %4, align 8, !tbaa !182
  %8 = getelementptr inbounds nuw %"class.folly::Executor::KeepAlive", ptr %7, i32 0, i32 0
  call void @llvm.lifetime.start.p0(i64 4, ptr %5) #31
  store i32 0, ptr %5, align 4, !tbaa !39
  %9 = call noundef i64 @_ZSt8exchangeImiET_RS0_OT0_(ptr noundef nonnull align 8 dereferenceable(8) %8, ptr noundef nonnull align 4 dereferenceable(4) %5) #31
  %10 = getelementptr inbounds nuw %"class.folly::Executor::KeepAlive", ptr %6, i32 0, i32 0
  store i64 %9, ptr %10, align 8, !tbaa !229
  call void @llvm.lifetime.end.p0(i64 4, ptr %5) #31
  ret ptr %6
}

; Function Attrs: mustprogress uwtable
define linkonce_odr void @_ZN5folly8Executor17getKeepAliveTokenIS0_EENS0_9KeepAliveIT_EEPS3_(ptr dead_on_unwind noalias writable sret(%"class.folly::Executor::KeepAlive") align 8 %0, ptr noundef %1) #2 comdat align 2 {
  %3 = alloca ptr, align 8
  %4 = alloca ptr, align 8
  %5 = alloca ptr, align 8
  %6 = alloca i32, align 4
  store ptr %0, ptr %3, align 8
  store ptr %1, ptr %4, align 8, !tbaa !227
  %7 = load ptr, ptr %4, align 8, !tbaa !227
  %8 = icmp ne ptr %7, null
  br i1 %8, label %10, label %9

9:                                                ; preds = %2
  call void @llvm.memset.p0.i64(ptr align 8 %0, i8 0, i64 8, i1 false)
  call void @_ZN5folly8Executor9KeepAliveIS0_EC2Ev(ptr noundef nonnull align 8 dereferenceable(8) %0) #31
  br label %22

10:                                               ; preds = %2
  call void @llvm.lifetime.start.p0(i64 8, ptr %5) #31
  %11 = load ptr, ptr %4, align 8, !tbaa !227
  store ptr %11, ptr %5, align 8, !tbaa !227
  %12 = load ptr, ptr %5, align 8, !tbaa !227
  %13 = load ptr, ptr %12, align 8, !tbaa !58
  %14 = getelementptr inbounds ptr, ptr %13, i64 5
  %15 = load ptr, ptr %14, align 8
  %16 = call noundef zeroext i1 %15(ptr noundef nonnull align 8 dereferenceable(8) %12) #31
  br i1 %16, label %17, label %19

17:                                               ; preds = %10
  %18 = load ptr, ptr %4, align 8, !tbaa !227
  call void @_ZN5folly8Executor13makeKeepAliveIS0_EENS0_9KeepAliveIT_EEPS3_(ptr dead_on_unwind writable sret(%"class.folly::Executor::KeepAlive") align 8 %0, ptr noundef %18)
  store i32 1, ptr %6, align 4
  br label %21

19:                                               ; preds = %10
  %20 = load ptr, ptr %4, align 8, !tbaa !227
  call void @_ZN5folly8Executor18makeKeepAliveDummyIS0_EENS0_9KeepAliveIT_EEPS3_(ptr dead_on_unwind writable sret(%"class.folly::Executor::KeepAlive") align 8 %0, ptr noundef %20)
  store i32 1, ptr %6, align 4
  br label %21

21:                                               ; preds = %19, %17
  call void @llvm.lifetime.end.p0(i64 8, ptr %5) #31
  br label %22

22:                                               ; preds = %21, %9
  ret void
}

; Function Attrs: mustprogress nounwind uwtable
define linkonce_odr noundef ptr @_ZNKSt6atomicIPN5folly14InlineExecutorEE4loadESt12memory_order(ptr noundef nonnull align 8 dereferenceable(8) %0, i32 noundef %1) #4 comdat align 2 {
  %3 = alloca ptr, align 8
  %4 = alloca i32, align 4
  store ptr %0, ptr %3, align 8, !tbaa !254
  store i32 %1, ptr %4, align 4, !tbaa !93
  %5 = load ptr, ptr %3, align 8
  %6 = getelementptr inbounds nuw %"struct.std::atomic.40", ptr %5, i32 0, i32 0
  %7 = load i32, ptr %4, align 4, !tbaa !93
  %8 = call noundef ptr @_ZNKSt13__atomic_baseIPN5folly14InlineExecutorEE4loadESt12memory_order(ptr noundef nonnull align 8 dereferenceable(8) %6, i32 noundef %7) #31
  ret ptr %8
}

; Function Attrs: mustprogress nounwind uwtable
define linkonce_odr void @_ZN5folly8Executor9KeepAliveIS0_ED2Ev(ptr noundef nonnull align 8 dereferenceable(8) %0) unnamed_addr #4 comdat align 2 {
  %2 = alloca ptr, align 8
  store ptr %0, ptr %2, align 8, !tbaa !182
  %3 = load ptr, ptr %2, align 8
  call void @_ZN5folly8Executor9KeepAliveIS0_E5resetEv(ptr noundef nonnull align 8 dereferenceable(8) %3) #31
  ret void
}

; Function Attrs: mustprogress uwtable
define linkonce_odr void @_ZN5folly8Executor9KeepAliveIS0_EC2EPS0_(ptr noundef nonnull align 8 dereferenceable(8) %0, ptr noundef %1) unnamed_addr #2 comdat align 2 {
  %3 = alloca ptr, align 8
  %4 = alloca ptr, align 8
  %5 = alloca %"class.folly::Executor::KeepAlive", align 8
  store ptr %0, ptr %3, align 8, !tbaa !182
  store ptr %1, ptr %4, align 8, !tbaa !227
  %6 = load ptr, ptr %3, align 8
  %7 = getelementptr inbounds nuw %"class.folly::Executor::KeepAlive", ptr %6, i32 0, i32 0
  store i64 0, ptr %7, align 8, !tbaa !229
  call void @llvm.lifetime.start.p0(i64 8, ptr %5) #31
  %8 = load ptr, ptr %4, align 8, !tbaa !227
  call void @_ZN5folly8Executor17getKeepAliveTokenIS0_EENS0_9KeepAliveIT_EEPS3_(ptr dead_on_unwind writable sret(%"class.folly::Executor::KeepAlive") align 8 %5, ptr noundef %8)
  %9 = call noundef nonnull align 8 dereferenceable(8) ptr @_ZN5folly8Executor9KeepAliveIS0_EaSEOS2_(ptr noundef nonnull align 8 dereferenceable(8) %6, ptr noundef nonnull align 8 dereferenceable(8) %5) #31
  call void @_ZN5folly8Executor9KeepAliveIS0_ED2Ev(ptr noundef nonnull align 8 dereferenceable(8) %5) #31
  call void @llvm.lifetime.end.p0(i64 8, ptr %5) #31
  ret void
}

; Function Attrs: alwaysinline mustprogress nounwind uwtable
define linkonce_odr hidden noundef nonnull align 8 dereferenceable(8) ptr @_ZN5folly14InlineExecutor8instanceEv() #11 comdat align 2 {
  %1 = alloca ptr, align 8
  call void @llvm.lifetime.start.p0(i64 8, ptr %1) #31
  %2 = call noundef ptr @_ZNKSt6atomicIPN5folly14InlineExecutorEE4loadESt12memory_order(ptr noundef nonnull align 8 dereferenceable(8) @_ZN5folly14InlineExecutor5cacheE, i32 noundef 2) #31
  store ptr %2, ptr %1, align 8, !tbaa !225
  %3 = load ptr, ptr %1, align 8, !tbaa !225
  %4 = icmp ne ptr %3, null
  br i1 %4, label %5, label %7

5:                                                ; preds = %0
  %6 = load ptr, ptr %1, align 8, !tbaa !225
  br label %9

7:                                                ; preds = %0
  %8 = call noundef nonnull align 8 dereferenceable(8) ptr @_ZN5folly14InlineExecutor13instance_slowEv() #42
  br label %9

9:                                                ; preds = %7, %5
  %10 = phi ptr [ %6, %5 ], [ %8, %7 ]
  call void @llvm.lifetime.end.p0(i64 8, ptr %1) #31
  ret ptr %10
}

; Function Attrs: mustprogress uwtable
define linkonce_odr void @_ZNO5folly10SemiFutureINS_4UnitEE14toUnsafeFutureEv(ptr dead_on_unwind noalias writable sret(%"class.folly::Future") align 8 %0, ptr noundef nonnull align 8 dereferenceable(8) %1) #2 comdat align 2 personality ptr @__gxx_personality_v0 {
  %3 = alloca ptr, align 8
  %4 = alloca ptr, align 8
  %5 = alloca %"class.folly::Executor::KeepAlive", align 8
  %6 = alloca ptr, align 8
  %7 = alloca i32, align 4
  store ptr %0, ptr %3, align 8
  store ptr %1, ptr %4, align 8, !tbaa !154
  %8 = load ptr, ptr %4, align 8
  %9 = call noundef nonnull align 8 dereferenceable(8) ptr @_ZN5folly14InlineExecutor8instanceEv() #31
  %10 = icmp eq ptr %9, null
  br i1 %10, label %16, label %11

11:                                               ; preds = %2
  %12 = load ptr, ptr %9, align 8, !tbaa !58
  %13 = getelementptr i8, ptr %12, i64 -72
  %14 = load i64, ptr %13, align 8
  %15 = getelementptr inbounds i8, ptr %9, i64 %14
  br label %16

16:                                               ; preds = %11, %2
  %17 = phi ptr [ %15, %11 ], [ null, %2 ]
  call void @_ZN5folly8Executor9KeepAliveIS0_EC2EPS0_(ptr noundef nonnull align 8 dereferenceable(8) %5, ptr noundef %17)
  invoke void @_ZNO5folly10SemiFutureINS_4UnitEE3viaENS_8Executor9KeepAliveIS3_EE(ptr dead_on_unwind writable sret(%"class.folly::Future") align 8 %0, ptr noundef nonnull align 8 dereferenceable(8) %8, ptr noundef %5)
          to label %18 unwind label %19

18:                                               ; preds = %16
  call void @_ZN5folly8Executor9KeepAliveIS0_ED2Ev(ptr noundef nonnull align 8 dereferenceable(8) %5) #31
  ret void

19:                                               ; preds = %16
  %20 = landingpad { ptr, i32 }
          cleanup
  %21 = extractvalue { ptr, i32 } %20, 0
  store ptr %21, ptr %6, align 8
  %22 = extractvalue { ptr, i32 } %20, 1
  store i32 %22, ptr %7, align 4
  call void @_ZN5folly8Executor9KeepAliveIS0_ED2Ev(ptr noundef nonnull align 8 dereferenceable(8) %5) #31
  br label %23

23:                                               ; preds = %19
  %24 = load ptr, ptr %6, align 8
  %25 = load i32, ptr %7, align 4
  %26 = insertvalue { ptr, i32 } poison, ptr %24, 0
  %27 = insertvalue { ptr, i32 } %26, i32 %25, 1
  resume { ptr, i32 } %27
}

; Function Attrs: mustprogress uwtable
define void @_ZN5folly7futures11sleepUnsafeENSt6chrono8durationIlSt5ratioILl1ELl1000000EEEEPNS_10TimekeeperE(ptr dead_on_unwind noalias writable sret(%"class.folly::Future") align 8 %0, i64 %1, ptr noundef %2) #2 personality ptr @__gxx_personality_v0 {
  %4 = alloca ptr, align 8
  %5 = alloca %"class.std::chrono::duration", align 8
  %6 = alloca ptr, align 8
  %7 = alloca %"class.folly::SemiFuture", align 8
  %8 = alloca %"class.std::chrono::duration", align 8
  %9 = alloca ptr, align 8
  %10 = alloca i32, align 4
  store ptr %0, ptr %4, align 8
  %11 = getelementptr inbounds nuw %"class.std::chrono::duration", ptr %5, i32 0, i32 0
  store i64 %1, ptr %11, align 8
  store ptr %2, ptr %6, align 8, !tbaa !139
  call void @llvm.lifetime.start.p0(i64 8, ptr %7) #31
  call void @llvm.memcpy.p0.p0.i64(ptr align 8 %8, ptr align 8 %5, i64 8, i1 false), !tbaa.struct !141
  %12 = load ptr, ptr %6, align 8, !tbaa !139
  %13 = getelementptr inbounds nuw %"class.std::chrono::duration", ptr %8, i32 0, i32 0
  %14 = load i64, ptr %13, align 8
  call void @_ZN5folly7futures5sleepENSt6chrono8durationIlSt5ratioILl1ELl1000000EEEEPNS_10TimekeeperE(ptr dead_on_unwind writable sret(%"class.folly::SemiFuture") align 8 %7, i64 %14, ptr noundef %12)
  invoke void @_ZNO5folly10SemiFutureINS_4UnitEE14toUnsafeFutureEv(ptr dead_on_unwind writable sret(%"class.folly::Future") align 8 %0, ptr noundef nonnull align 8 dereferenceable(8) %7)
          to label %15 unwind label %16

15:                                               ; preds = %3
  call void @_ZN5folly10SemiFutureINS_4UnitEED2Ev(ptr noundef nonnull align 8 dereferenceable(8) %7) #31
  call void @llvm.lifetime.end.p0(i64 8, ptr %7) #31
  ret void

16:                                               ; preds = %3
  %17 = landingpad { ptr, i32 }
          cleanup
  %18 = extractvalue { ptr, i32 } %17, 0
  store ptr %18, ptr %9, align 8
  %19 = extractvalue { ptr, i32 } %17, 1
  store i32 %19, ptr %10, align 4
  call void @_ZN5folly10SemiFutureINS_4UnitEED2Ev(ptr noundef nonnull align 8 dereferenceable(8) %7) #31
  call void @llvm.lifetime.end.p0(i64 8, ptr %7) #31
  br label %20

20:                                               ; preds = %16
  %21 = load ptr, ptr %9, align 8
  %22 = load i32, ptr %10, align 4
  %23 = insertvalue { ptr, i32 } poison, ptr %21, 0
  %24 = insertvalue { ptr, i32 } %23, i32 %22, 1
  resume { ptr, i32 } %24
}