; Function Attrs: mustprogress uwtable
define void @_ZN5folly7futures11sleepUnsafeENSt6chrono8durationIlSt5ratioILl1ELl1000000EEEEPNS_10TimekeeperE(ptr dead_on_unwind noalias writable sret(%"class.folly::Future") align 8 %0, i64 %1, ptr noundef %2) local_unnamed_addr #1 personality ptr @__gxx_personality_v0 {
  %4 = alloca %"class.folly::Executor::KeepAlive", align 8
  %5 = alloca %"class.folly::SemiFuture", align 8
  call void @llvm.lifetime.start.p0(i64 8, ptr nonnull %5) #23
  call void @_ZN5folly7futures5sleepENSt6chrono8durationIlSt5ratioILl1ELl1000000EEEEPNS_10TimekeeperE(ptr dead_on_unwind nonnull writable sret(%"class.folly::SemiFuture") align 8 %5, i64 %1, ptr noundef %2)
  call void @llvm.lifetime.start.p0(i64 8, ptr nonnull %4)
  %6 = load atomic i64, ptr @_ZN5folly14InlineExecutor5cacheE acquire, align 8, !noalias !107
  %.0.i.i.i = inttoptr i64 %6 to ptr
  %.not.i.i = icmp eq i64 %6, 0
  br i1 %.not.i.i, label %7, label %_ZN5folly8Executor9KeepAliveIS0_EC2EPS0_.exit.i

7:                                                ; preds = %3
  %8 = call noundef nonnull align 8 dereferenceable(8) ptr @_ZN5folly14InlineExecutor13instance_slowEv() #37, !noalias !107
  br label %_ZN5folly8Executor9KeepAliveIS0_EC2EPS0_.exit.i

_ZN5folly8Executor9KeepAliveIS0_EC2EPS0_.exit.i:  ; preds = %7, %3
  %9 = phi ptr [ %8, %7 ], [ %.0.i.i.i, %3 ]
  %10 = load ptr, ptr %9, align 8, !tbaa !29, !noalias !107
  %11 = getelementptr i8, ptr %10, i64 -72
  %12 = load i64, ptr %11, align 8, !noalias !107
  %13 = getelementptr inbounds i8, ptr %9, i64 %12
  %14 = load ptr, ptr %13, align 8, !tbaa !29, !noalias !110
  %15 = getelementptr inbounds nuw i8, ptr %14, i64 40
  %16 = load ptr, ptr %15, align 8, !noalias !110
  %17 = call noundef zeroext i1 %16(ptr noundef nonnull align 8 dereferenceable(8) %13) #23, !noalias !110
  %not..i.i.i = xor i1 %17, true
  %18 = zext i1 %not..i.i.i to i64
  %19 = ptrtoint ptr %13 to i64
  %spec.select.i.i.i = or i64 %18, %19
  store i64 %spec.select.i.i.i, ptr %4, align 8, !tbaa !113, !noalias !107
  invoke void @_ZNO5folly10SemiFutureINS_4UnitEE3viaENS_8Executor9KeepAliveIS3_EE(ptr dead_on_unwind writable sret(%"class.folly::Future") align 8 %0, ptr noundef nonnull align 8 dereferenceable(8) %5, ptr noundef nonnull %4)
          to label %20 unwind label %30

20:                                               ; preds = %_ZN5folly8Executor9KeepAliveIS0_EC2EPS0_.exit.i
  %21 = load i64, ptr %4, align 8, !tbaa !113, !noalias !107
  %22 = and i64 %21, -4
  %23 = inttoptr i64 %22 to ptr
  %.not.i.i.i = icmp eq i64 %22, 0
  br i1 %.not.i.i.i, label %41, label %24

24:                                               ; preds = %20
  store i64 0, ptr %4, align 8, !tbaa !116, !noalias !107
  %25 = and i64 %21, 3
  %.not3.i.i.i = icmp eq i64 %25, 0
  br i1 %.not3.i.i.i, label %26, label %41

26:                                               ; preds = %24
  %27 = load ptr, ptr %23, align 8, !tbaa !29
  %28 = getelementptr inbounds nuw i8, ptr %27, i64 48
  %29 = load ptr, ptr %28, align 8
  call void %29(ptr noundef nonnull align 8 dereferenceable(8) %23) #23
  br label %41

30:                                               ; preds = %_ZN5folly8Executor9KeepAliveIS0_EC2EPS0_.exit.i
  %31 = landingpad { ptr, i32 }
          cleanup
  %32 = load i64, ptr %4, align 8, !tbaa !113, !noalias !107
  %33 = and i64 %32, -4
  %34 = inttoptr i64 %33 to ptr
  %.not.i.i2.i = icmp eq i64 %33, 0
  br i1 %.not.i.i2.i, label %.body, label %35

35:                                               ; preds = %30
  store i64 0, ptr %4, align 8, !tbaa !116, !noalias !107
  %36 = and i64 %32, 3
  %.not3.i.i3.i = icmp eq i64 %36, 0
  br i1 %.not3.i.i3.i, label %37, label %.body

37:                                               ; preds = %35
  %38 = load ptr, ptr %34, align 8, !tbaa !29
  %39 = getelementptr inbounds nuw i8, ptr %38, i64 48
  %40 = load ptr, ptr %39, align 8
  call void %40(ptr noundef nonnull align 8 dereferenceable(8) %34) #23
  br label %.body

41:                                               ; preds = %26, %24, %20
  call void @llvm.lifetime.end.p0(i64 8, ptr nonnull %4)
  %42 = load ptr, ptr %5, align 8, !tbaa !58
  invoke void @_ZN5folly10SemiFutureINS_4UnitEE23releaseDeferredExecutorEPNS_7futures6detail4CoreIS1_EE(ptr noundef %42)
          to label %43 unwind label %46

43:                                               ; preds = %41
  %44 = load ptr, ptr %5, align 8, !tbaa !58
  %.not.i.i.i3 = icmp eq ptr %44, null
  br i1 %.not.i.i.i3, label %_ZN5folly10SemiFutureINS_4UnitEED2Ev.exit, label %45

45:                                               ; preds = %43
  call void @_ZN5folly7futures6detail8CoreBase9detachOneEv(ptr noundef nonnull align 16 dereferenceable(136) %44) #23
  br label %_ZN5folly10SemiFutureINS_4UnitEED2Ev.exit

46:                                               ; preds = %41
  %47 = landingpad { ptr, i32 }
          catch ptr null
  %48 = extractvalue { ptr, i32 } %47, 0
  call void @__clang_call_terminate(ptr %48) #33
  unreachable

_ZN5folly10SemiFutureINS_4UnitEED2Ev.exit:        ; preds = %43, %45
  call void @llvm.lifetime.end.p0(i64 8, ptr nonnull %5) #23
  ret void

.body:                                            ; preds = %30, %35, %37
  call void @_ZN5folly10SemiFutureINS_4UnitEED2Ev(ptr noundef nonnull align 8 dereferenceable(8) %5) #23
  call void @llvm.lifetime.end.p0(i64 8, ptr nonnull %5) #23
  resume { ptr, i32 } %31
}